; ModuleID = '15/1167.c'
source_filename = "15/1167.c"
target datalayout = "e-m:e-p270:32:32-p271:32:32-p272:64:64-i64:64-f80:128-n8:16:32:64-S128"
target triple = "x86_64-pc-linux-gnu"

@.str = private unnamed_addr constant [3 x i8] c"%d\00", align 1
@.str.1 = private unnamed_addr constant [4 x i8] c"%d\0A\00", align 1

; Function Attrs: noinline nounwind uwtable
define dso_local i32 @main() #0 {
  %1 = alloca i32, align 4
  %2 = alloca i32, align 4
  %3 = alloca i32, align 4
  %4 = alloca i32, align 4
  %5 = alloca i32, align 4
  %6 = alloca i32, align 4
  %7 = alloca i32, align 4
  %8 = alloca i32, align 4
  %9 = alloca i32, align 4
  %10 = alloca i32, align 4
  store i32 0, i32* %1, align 4
  %11 = call i32 (i8*, ...) @__isoc99_scanf(i8* getelementptr inbounds ([3 x i8], [3 x i8]* @.str, i64 0, i64 0), i32* %2)
  %12 = load i32, i32* %2, align 4
  store i32 %12, i32* %5, align 4
  %13 = load i32, i32* %2, align 4
  store i32 %13, i32* %6, align 4
  store i32 -1, i32* %7, align 4
  store i32 -1, i32* %8, align 4
  store i32 0, i32* %3, align 4
  br label %14

14:                                               ; preds = %57, %0
  %15 = load i32, i32* %3, align 4
  %16 = load i32, i32* %2, align 4
  %17 = icmp slt i32 %15, %16
  br i1 %17, label %18, label %60

18:                                               ; preds = %14
  store i32 0, i32* %4, align 4
  br label %19

19:                                               ; preds = %53, %18
  %20 = load i32, i32* %4, align 4
  %21 = load i32, i32* %2, align 4
  %22 = icmp slt i32 %20, %21
  br i1 %22, label %23, label %56

23:                                               ; preds = %19
  %24 = call i32 (i8*, ...) @__isoc99_scanf(i8* getelementptr inbounds ([3 x i8], [3 x i8]* @.str, i64 0, i64 0), i32* %10)
  %25 = load i32, i32* %10, align 4
  %26 = icmp eq i32 %25, 0
  br i1 %26, label %27, label %52

27:                                               ; preds = %23
  %28 = load i32, i32* %3, align 4
  %29 = load i32, i32* %5, align 4
  %30 = icmp slt i32 %28, %29
  br i1 %30, label %31, label %33

31:                                               ; preds = %27
  %32 = load i32, i32* %3, align 4
  store i32 %32, i32* %5, align 4
  br label %33

33:                                               ; preds = %31, %27
  %34 = load i32, i32* %3, align 4
  %35 = load i32, i32* %7, align 4
  %36 = icmp sgt i32 %34, %35
  br i1 %36, label %37, label %39

37:                                               ; preds = %33
  %38 = load i32, i32* %3, align 4
  store i32 %38, i32* %7, align 4
  br label %39

39:                                               ; preds = %37, %33
  %40 = load i32, i32* %4, align 4
  %41 = load i32, i32* %6, align 4
  %42 = icmp slt i32 %40, %41
  br i1 %42, label %43, label %45

43:                                               ; preds = %39
  %44 = load i32, i32* %4, align 4
  store i32 %44, i32* %6, align 4
  br label %45

45:                                               ; preds = %43, %39
  %46 = load i32, i32* %4, align 4
  %47 = load i32, i32* %8, align 4
  %48 = icmp sgt i32 %46, %47
  br i1 %48, label %49, label %51

49:                                               ; preds = %45
  %50 = load i32, i32* %4, align 4
  store i32 %50, i32* %8, align 4
  br label %51

51:                                               ; preds = %49, %45
  br label %52

52:                                               ; preds = %51, %23
  br label %53

53:                                               ; preds = %52
  %54 = load i32, i32* %4, align 4
  %55 = add nsw i32 %54, 1
  store i32 %55, i32* %4, align 4
  br label %19

56:                                               ; preds = %19
  br label %57

57:                                               ; preds = %56
  %58 = load i32, i32* %3, align 4
  %59 = add nsw i32 %58, 1
  store i32 %59, i32* %3, align 4
  br label %14

60:                                               ; preds = %14
  %61 = load i32, i32* %7, align 4
  %62 = load i32, i32* %5, align 4
  %63 = sub nsw i32 %61, %62
  %64 = sub nsw i32 %63, 1
  %65 = load i32, i32* %8, align 4
  %66 = load i32, i32* %6, align 4
  %67 = sub nsw i32 %65, %66
  %68 = sub nsw i32 %67, 1
  %69 = mul nsw i32 %64, %68
  store i32 %69, i32* %9, align 4
  %70 = load i32, i32* %9, align 4
  %71 = call i32 (i8*, ...) @printf(i8* getelementptr inbounds ([4 x i8], [4 x i8]* @.str.1, i64 0, i64 0), i32 %70)
  ret i32 0
}

declare dso_local i32 @__isoc99_scanf(i8*, ...) #1

declare dso_local i32 @printf(i8*, ...) #1


!llvm.module.flags = !{!0}
!llvm.ident = !{!1}

!0 = !{i32 1, !"wchar_size", i32 4}
!1 = !{!"clang version 10.0.0-4ubuntu1 "}
